Certificate:
    Data:
        Version: 3 (0x2)
        Serial Number: 2 (0x2)
    Signature Algorithm: sha256WithRSAEncryption
        Issuer: C=FR, ST=CA, L=France, O=Vincennes, OU=MyOrganizationalUnit, CN=ca/name=EasyRSA/emailAddress=rodolphewachter@hotmail.com
        Validity
            Not Before: Oct 17 09:51:26 2016 GMT
            Not After : Oct 15 09:51:26 2026 GMT
        Subject: C=FR, ST=CA, L=France, O=Vincennes, OU=MyOrganizationalUnit, CN=clienttoto/name=EasyRSA/emailAddress=rodolphewachter@hotmail.com
        Subject Public Key Info:
            Public Key Algorithm: rsaEncryption
                Public-Key: (2048 bit)
                Modulus:
                    00:af:2e:1c:81:f4:fb:49:d2:15:f2:cc:4f:04:8a:
                    2c:bf:f7:a5:10:9d:4e:90:2c:d7:45:6e:80:d9:0f:
                    e8:09:cb:56:7c:17:3a:ba:79:f9:69:25:e6:76:ca:
                    d1:9b:0e:70:7d:63:82:8b:68:32:8a:22:d4:55:88:
                    eb:bf:93:5e:df:fa:45:8e:36:61:79:8c:01:ba:ec:
                    b4:a3:4b:96:64:7a:d9:c8:71:90:8a:ee:c8:df:05:
                    bf:c1:8e:c1:3c:cf:8b:6e:be:f6:20:b9:bb:44:29:
                    98:5b:94:e0:75:27:a1:08:8d:5a:77:2d:49:c0:7a:
                    10:d0:67:5e:38:2d:2e:90:50:c9:13:7d:cb:ec:4e:
                    a6:88:f1:9c:48:0d:e5:a1:27:00:18:db:fd:2f:53:
                    55:fe:48:16:b3:e4:35:85:69:08:92:a1:74:be:03:
                    c2:7c:e4:62:15:4d:0e:4e:f4:3b:ae:3c:2b:c4:91:
                    f7:6d:1e:46:3f:e5:6c:89:0c:ef:f1:85:b1:c9:f4:
                    a9:f0:f4:a1:26:d3:2b:c0:2f:99:35:6e:de:73:25:
                    de:d5:d1:6f:65:75:0e:e0:9a:2e:54:8a:76:03:f3:
                    31:50:38:de:ba:f8:65:7a:6a:77:d2:46:85:17:44:
                    21:89:f0:4f:6a:97:cc:7d:cb:c1:bf:42:bb:f5:e4:
                    87:d3
                Exponent: 65537 (0x10001)
        X509v3 extensions:
            X509v3 Basic Constraints: 
                CA:FALSE
            Netscape Comment: 
                Easy-RSA Generated Certificate
            X509v3 Subject Key Identifier: 
                12:8D:C2:60:8C:BC:2F:9A:C1:41:71:CB:0C:F2:E5:A2:44:93:90:BF
            X509v3 Authority Key Identifier: 
                keyid:E9:7C:9C:31:E7:38:3E:39:10:13:FC:D7:61:40:27:E0:24:22:9C:64
                DirName:/C=FR/ST=CA/L=France/O=Vincennes/OU=MyOrganizationalUnit/CN=ca/name=EasyRSA/emailAddress=rodolphewachter@hotmail.com
                serial:C4:07:24:36:7B:D9:0D:E7

            X509v3 Extended Key Usage: 
                TLS Web Client Authentication
            X509v3 Key Usage: 
                Digital Signature
            X509v3 Subject Alternative Name: 
                DNS:clientoto
    Signature Algorithm: sha256WithRSAEncryption
         4e:0e:d9:7c:c1:7b:9f:ec:2a:92:22:0f:b9:5e:88:56:95:e0:
         f6:7d:6e:7f:55:2b:25:96:f6:fa:b6:08:f7:2b:dd:29:b7:d0:
         b2:8f:19:8d:e2:d3:f9:f4:4b:bc:51:3a:a4:7b:b7:92:0f:8c:
         e6:67:8e:a7:77:b3:66:88:b6:74:9b:27:72:2c:46:e4:ab:d4:
         b3:07:5b:a2:e8:8f:15:ad:81:0b:9e:ae:af:e2:ec:fe:03:3f:
         64:cd:03:be:b6:b6:3a:0a:66:e4:27:da:4f:fa:5e:66:17:37:
         2c:6f:c0:55:e2:61:1c:c7:3c:5c:15:63:3e:b3:03:dd:fd:b8:
         af:b7:e1:11:ea:72:68:64:04:b6:f7:eb:0e:98:5a:9e:d6:34:
         36:fc:f5:76:90:e6:67:89:9a:c5:5b:a2:ca:6c:e5:c9:cf:2c:
         42:b8:e1:41:9f:99:72:e2:cc:b6:6b:43:73:7e:97:da:8a:c1:
         9d:75:43:07:2c:9b:51:0b:52:c3:17:97:eb:c4:0f:5c:d2:ba:
         c4:85:dc:a3:c8:cb:48:2d:d2:a7:4e:17:83:17:79:a2:ba:fb:
         bf:57:56:7a:e6:d2:8f:32:97:9e:fc:5a:07:8e:83:05:22:9d:
         b4:dd:a3:81:19:fb:31:e7:86:c3:e7:b9:1d:10:d3:62:54:3f:
         35:6c:35:72
-----BEGIN CERTIFICATE-----
MIIFTzCCBDegAwIBAgIBAjANBgkqhkiG9w0BAQsFADCBqTELMAkGA1UEBhMCRlIx
CzAJBgNVBAgTAkNBMQ8wDQYDVQQHEwZGcmFuY2UxEjAQBgNVBAoTCVZpbmNlbm5l
czEdMBsGA1UECxMUTXlPcmdhbml6YXRpb25hbFVuaXQxCzAJBgNVBAMTAmNhMRAw
DgYDVQQpEwdFYXN5UlNBMSowKAYJKoZIhvcNAQkBFhtyb2RvbHBoZXdhY2h0ZXJA
aG90bWFpbC5jb20wHhcNMTYxMDE3MDk1MTI2WhcNMjYxMDE1MDk1MTI2WjCBsTEL
MAkGA1UEBhMCRlIxCzAJBgNVBAgTAkNBMQ8wDQYDVQQHEwZGcmFuY2UxEjAQBgNV
BAoTCVZpbmNlbm5lczEdMBsGA1UECxMUTXlPcmdhbml6YXRpb25hbFVuaXQxEzAR
BgNVBAMTCmNsaWVudHRvdG8xEDAOBgNVBCkTB0Vhc3lSU0ExKjAoBgkqhkiG9w0B
CQEWG3JvZG9scGhld2FjaHRlckBob3RtYWlsLmNvbTCCASIwDQYJKoZIhvcNAQEB
BQADggEPADCCAQoCggEBAK8uHIH0+0nSFfLMTwSKLL/3pRCdTpAs10VugNkP6AnL
VnwXOrp5+Wkl5nbK0ZsOcH1jgotoMooi1FWI67+TXt/6RY42YXmMAbrstKNLlmR6
2chxkIruyN8Fv8GOwTzPi26+9iC5u0QpmFuU4HUnoQiNWnctScB6ENBnXjgtLpBQ
yRN9y+xOpojxnEgN5aEnABjb/S9TVf5IFrPkNYVpCJKhdL4DwnzkYhVNDk70O648
K8SR920eRj/lbIkM7/GFscn0qfD0oSbTK8AvmTVu3nMl3tXRb2V1DuCaLlSKdgPz
MVA43rr4ZXpqd9JGhRdEIYnwT2qXzH3Lwb9Cu/Xkh9MCAwEAAaOCAXYwggFyMAkG
A1UdEwQCMAAwLQYJYIZIAYb4QgENBCAWHkVhc3ktUlNBIEdlbmVyYXRlZCBDZXJ0
aWZpY2F0ZTAdBgNVHQ4EFgQUEo3CYIy8L5rBQXHLDPLlokSTkL8wgd4GA1UdIwSB
1jCB04AU6XycMec4PjkQE/zXYUAn4CQinGShga+kgawwgakxCzAJBgNVBAYTAkZS
MQswCQYDVQQIEwJDQTEPMA0GA1UEBxMGRnJhbmNlMRIwEAYDVQQKEwlWaW5jZW5u
ZXMxHTAbBgNVBAsTFE15T3JnYW5pemF0aW9uYWxVbml0MQswCQYDVQQDEwJjYTEQ
MA4GA1UEKRMHRWFzeVJTQTEqMCgGCSqGSIb3DQEJARYbcm9kb2xwaGV3YWNodGVy
QGhvdG1haWwuY29tggkAxAckNnvZDecwEwYDVR0lBAwwCgYIKwYBBQUHAwIwCwYD
VR0PBAQDAgeAMBQGA1UdEQQNMAuCCWNsaWVudG90bzANBgkqhkiG9w0BAQsFAAOC
AQEATg7ZfMF7n+wqkiIPuV6IVpXg9n1uf1UrJZb2+rYI9yvdKbfQso8ZjeLT+fRL
vFE6pHu3kg+M5meOp3ezZoi2dJsncixG5KvUswdbouiPFa2BC56ur+Ls/gM/ZM0D
vra2Ogpm5CfaT/peZhc3LG/AVeJhHMc8XBVjPrMD3f24r7fhEepyaGQEtvfrDpha
ntY0Nvz1dpDmZ4maxVuiymzlyc8sQrjhQZ+ZcuLMtmtDc36X2orBnXVDByybUQtS
wxeX68QPXNK6xIXco8jLSC3Sp04Xgxd5orr7v1dWeubSjzKXnvxaB46DBSKdtN2j
gRn7MeeGw+e5HRDTYlQ/NWw1cg==
-----END CERTIFICATE-----
