Certificate:
    Data:
        Version: 3 (0x2)
        Serial Number: 1 (0x1)
    Signature Algorithm: sha256WithRSAEncryption
        Issuer: C=FR, ST=CA, L=France, O=Vincennes, OU=MyOrganizationalUnit, CN=ca/name=EasyRSA/emailAddress=rodolphewachter@hotmail.com
        Validity
            Not Before: Oct 17 09:42:33 2016 GMT
            Not After : Oct 15 09:42:33 2026 GMT
        Subject: C=FR, ST=CA, L=France, O=Vincennes, OU=MyOrganizationalUnit, CN=server22/name=EasyRSA/emailAddress=rodolphewachter@hotmail.com
        Subject Public Key Info:
            Public Key Algorithm: rsaEncryption
                Public-Key: (2048 bit)
                Modulus:
                    00:e2:64:c6:20:a2:ac:1f:ec:f8:ed:d1:e9:f0:ff:
                    75:95:cd:bb:fe:63:61:8f:93:10:fc:ab:d1:0e:1a:
                    bf:b0:9d:6f:a8:00:a1:1c:8f:c8:ed:00:63:02:cc:
                    9b:75:b9:1b:76:3b:d7:dc:c2:f5:4b:0f:11:f1:3a:
                    e5:86:4f:9a:f7:87:88:74:70:05:39:8d:df:fc:2c:
                    b4:11:69:f1:dc:f1:64:5a:04:f3:20:fe:84:59:f8:
                    5d:fd:9a:fe:9c:20:ff:ff:b3:a3:57:60:43:6a:5a:
                    a3:f9:95:c2:8e:d2:0a:b9:e0:4c:45:82:b5:96:09:
                    1b:c3:81:4b:5b:73:d2:b5:e9:6f:ca:9e:27:b2:c2:
                    97:a7:0a:d2:bb:41:bb:3c:07:3d:2e:90:d8:e9:e5:
                    a0:38:86:e7:6f:e3:cc:05:d2:e6:b5:76:18:62:38:
                    42:4f:ca:f1:89:fa:2b:e3:f4:f4:21:be:c9:a9:88:
                    fb:17:f0:59:cf:ac:f7:99:34:b1:0f:5f:2d:d6:1c:
                    4d:41:79:9d:02:31:91:cd:0b:07:bc:aa:c4:fa:e5:
                    77:18:78:ca:a9:1d:89:2b:f4:0d:6f:f3:87:28:ff:
                    ea:6c:30:d9:b0:a5:60:4b:41:1d:5c:3c:f6:7b:47:
                    49:4b:30:4e:86:de:f1:d3:a1:d4:da:d6:17:94:42:
                    8f:21
                Exponent: 65537 (0x10001)
        X509v3 extensions:
            X509v3 Basic Constraints: 
                CA:FALSE
            Netscape Cert Type: 
                SSL Server
            Netscape Comment: 
                Easy-RSA Generated Server Certificate
            X509v3 Subject Key Identifier: 
                D2:1C:AB:7A:93:29:B9:4E:03:B1:A5:DD:AF:D2:AD:CC:55:34:D0:B7
            X509v3 Authority Key Identifier: 
                keyid:E9:7C:9C:31:E7:38:3E:39:10:13:FC:D7:61:40:27:E0:24:22:9C:64
                DirName:/C=FR/ST=CA/L=France/O=Vincennes/OU=MyOrganizationalUnit/CN=ca/name=EasyRSA/emailAddress=rodolphewachter@hotmail.com
                serial:C4:07:24:36:7B:D9:0D:E7

            X509v3 Extended Key Usage: 
                TLS Web Server Authentication
            X509v3 Key Usage: 
                Digital Signature, Key Encipherment
            X509v3 Subject Alternative Name: 
                DNS:toto
    Signature Algorithm: sha256WithRSAEncryption
         98:49:38:18:6f:b9:c7:6f:d2:fd:f2:3b:41:5b:e1:70:5b:1a:
         d7:39:4a:cd:e5:de:5b:2b:b7:20:5c:12:ee:76:51:9e:94:19:
         55:1e:7a:8c:aa:6e:ad:b3:10:f4:18:d7:8d:91:06:d3:cd:d0:
         e5:cb:4e:c9:18:fa:80:9b:31:09:f6:4c:55:41:b4:b6:05:9d:
         2e:7f:e3:af:4d:9f:41:90:a1:cc:ed:9f:f0:bc:b6:44:a9:34:
         8c:bd:ee:ff:8a:c2:0e:69:04:f0:b5:da:08:4e:86:19:f2:4c:
         bd:58:1f:4f:d6:7c:a0:c5:cb:71:f3:7d:cd:f4:a4:fd:e1:81:
         ea:ca:34:8f:af:07:81:f2:28:a6:f8:1a:b6:a1:d5:53:fb:db:
         10:50:7c:51:25:55:71:77:53:d1:cb:eb:bf:f7:d4:3c:e4:36:
         54:dd:d7:87:f7:2f:b5:67:37:9a:55:02:30:f7:ec:ca:b7:c3:
         3f:ab:aa:45:c9:39:40:54:33:e9:af:48:66:20:c8:7c:fe:23:
         f1:85:68:bb:eb:53:04:05:7e:f8:21:b7:fc:60:bd:50:e1:d9:
         ec:d7:60:f0:6c:6b:7c:29:30:84:97:63:0e:86:28:2b:df:6e:
         b4:5b:05:31:c0:e9:86:31:cd:12:74:fa:13:e1:5d:1c:a3:96:
         a5:71:bc:87
-----BEGIN CERTIFICATE-----
MIIFYjCCBEqgAwIBAgIBATANBgkqhkiG9w0BAQsFADCBqTELMAkGA1UEBhMCRlIx
CzAJBgNVBAgTAkNBMQ8wDQYDVQQHEwZGcmFuY2UxEjAQBgNVBAoTCVZpbmNlbm5l
czEdMBsGA1UECxMUTXlPcmdhbml6YXRpb25hbFVuaXQxCzAJBgNVBAMTAmNhMRAw
DgYDVQQpEwdFYXN5UlNBMSowKAYJKoZIhvcNAQkBFhtyb2RvbHBoZXdhY2h0ZXJA
aG90bWFpbC5jb20wHhcNMTYxMDE3MDk0MjMzWhcNMjYxMDE1MDk0MjMzWjCBrzEL
MAkGA1UEBhMCRlIxCzAJBgNVBAgTAkNBMQ8wDQYDVQQHEwZGcmFuY2UxEjAQBgNV
BAoTCVZpbmNlbm5lczEdMBsGA1UECxMUTXlPcmdhbml6YXRpb25hbFVuaXQxETAP
BgNVBAMTCHNlcnZlcjIyMRAwDgYDVQQpEwdFYXN5UlNBMSowKAYJKoZIhvcNAQkB
Fhtyb2RvbHBoZXdhY2h0ZXJAaG90bWFpbC5jb20wggEiMA0GCSqGSIb3DQEBAQUA
A4IBDwAwggEKAoIBAQDiZMYgoqwf7Pjt0enw/3WVzbv+Y2GPkxD8q9EOGr+wnW+o
AKEcj8jtAGMCzJt1uRt2O9fcwvVLDxHxOuWGT5r3h4h0cAU5jd/8LLQRafHc8WRa
BPMg/oRZ+F39mv6cIP//s6NXYENqWqP5lcKO0gq54ExFgrWWCRvDgUtbc9K16W/K
nieywpenCtK7Qbs8Bz0ukNjp5aA4hudv48wF0ua1dhhiOEJPyvGJ+ivj9PQhvsmp
iPsX8FnPrPeZNLEPXy3WHE1BeZ0CMZHNCwe8qsT65XcYeMqpHYkr9A1v84co/+ps
MNmwpWBLQR1cPPZ7R0lLME6G3vHTodTa1heUQo8hAgMBAAGjggGLMIIBhzAJBgNV
HRMEAjAAMBEGCWCGSAGG+EIBAQQEAwIGQDA0BglghkgBhvhCAQ0EJxYlRWFzeS1S
U0EgR2VuZXJhdGVkIFNlcnZlciBDZXJ0aWZpY2F0ZTAdBgNVHQ4EFgQU0hyrepMp
uU4DsaXdr9KtzFU00Lcwgd4GA1UdIwSB1jCB04AU6XycMec4PjkQE/zXYUAn4CQi
nGShga+kgawwgakxCzAJBgNVBAYTAkZSMQswCQYDVQQIEwJDQTEPMA0GA1UEBxMG
RnJhbmNlMRIwEAYDVQQKEwlWaW5jZW5uZXMxHTAbBgNVBAsTFE15T3JnYW5pemF0
aW9uYWxVbml0MQswCQYDVQQDEwJjYTEQMA4GA1UEKRMHRWFzeVJTQTEqMCgGCSqG
SIb3DQEJARYbcm9kb2xwaGV3YWNodGVyQGhvdG1haWwuY29tggkAxAckNnvZDecw
EwYDVR0lBAwwCgYIKwYBBQUHAwEwCwYDVR0PBAQDAgWgMA8GA1UdEQQIMAaCBHRv
dG8wDQYJKoZIhvcNAQELBQADggEBAJhJOBhvucdv0v3yO0Fb4XBbGtc5Ss3l3lsr
tyBcEu52UZ6UGVUeeoyqbq2zEPQY142RBtPN0OXLTskY+oCbMQn2TFVBtLYFnS5/
469Nn0GQocztn/C8tkSpNIy97v+Kwg5pBPC12ghOhhnyTL1YH0/WfKDFy3Hzfc30
pP3hgerKNI+vB4HyKKb4Grah1VP72xBQfFElVXF3U9HL67/31DzkNlTd14f3L7Vn
N5pVAjD37Mq3wz+rqkXJOUBUM+mvSGYgyHz+I/GFaLvrUwQFfvght/xgvVDh2ezX
YPBsa3wpMISXYw6GKCvfbrRbBTHA6YYxzRJ0+hPhXRyjlqVxvIc=
-----END CERTIFICATE-----
